; Function Attrs: nounwind uwtable
define dso_local range(i32 -1, 1) i32 @PyRun_SimpleFileExFlags(ptr noundef %0, ptr noundef %1, i32 noundef %2, ptr noundef %3) local_unnamed_addr #0 {
  %5 = tail call ptr @PyUnicode_DecodeFSDefault(ptr noundef %1) #8
  %6 = icmp eq ptr %5, null
  br i1 %6, label %Py_DECREF.exit, label %7

7:                                                ; preds = %4
  %8 = tail call i32 @_PyRun_SimpleFileObject(ptr noundef %0, ptr noundef nonnull %5, i32 noundef %2, ptr noundef %3)
  %9 = load i32, ptr %5, align 8, !tbaa !9
  %.not.i = icmp sgt i32 %9, -1
  br i1 %.not.i, label %10, label %Py_DECREF.exit

10:                                               ; preds = %7
  %11 = add nsw i32 %9, -1
  store i32 %11, ptr %5, align 8, !tbaa !9
  %12 = icmp eq i32 %11, 0
  br i1 %12, label %13, label %Py_DECREF.exit

13:                                               ; preds = %10
  tail call void @_Py_Dealloc(ptr noundef nonnull %5) #8
  br label %Py_DECREF.exit

Py_DECREF.exit:                                   ; preds = %13, %10, %7, %4
  %.0 = phi i32 [ -1, %4 ], [ %8, %7 ], [ %8, %10 ], [ %8, %13 ]
  ret i32 %.0
}